; Function Attrs: nounwind uwtable
define dso_local noundef ptr @BlessTupleDesc(ptr noundef returned %0) local_unnamed_addr #1 {
  %2 = getelementptr inbounds nuw i8, ptr %0, i64 4
  %3 = load i32, ptr %2, align 4
  %4 = icmp eq i32 %3, 2249
  br i1 %4, label %5, label %10

5:                                                ; preds = %1
  %6 = getelementptr inbounds nuw i8, ptr %0, i64 8
  %7 = load i32, ptr %6, align 8
  %8 = icmp slt i32 %7, 0
  br i1 %8, label %9, label %10

9:                                                ; preds = %5
  tail call void @assign_record_type_typmod(ptr noundef nonnull %0) #14
  br label %10

10:                                               ; preds = %9, %5, %1
  ret ptr %0
}